; Function Attrs: null_pointer_is_valid sspstrong uwtable
define internal i32 @dissect_pfcp_enterprise_bbf_logical_port(ptr noundef %0, ptr noundef readonly captures(none) %1, ptr noundef %2, ptr readnone captures(none) %3) #0 {
  %5 = alloca ptr, align 8
  %6 = tail call zeroext i1 @tvb_ascii_isprint(ptr noundef %0, i32 noundef 0, i32 noundef -1)
  br i1 %6, label %7, label %14

7:                                                ; preds = %4
  call void @llvm.lifetime.start.p0(i64 8, ptr nonnull %5) #15
  %8 = load i32, ptr @hf_pfcp_bbf_logical_port_id_str, align 4
  %9 = getelementptr inbounds nuw i8, ptr %1, i64 408
  %10 = load ptr, ptr %9, align 8
  %11 = call ptr @proto_tree_add_item_ret_string(ptr noundef %2, i32 noundef %8, ptr noundef %0, i32 noundef 0, i32 noundef -1, i32 noundef 0, ptr noundef %10, ptr noundef nonnull %5)
  %12 = call ptr @proto_tree_get_parent(ptr noundef %2)
  %13 = load ptr, ptr %5, align 8
  call void (ptr, ptr, ...) @proto_item_append_text(ptr noundef %12, ptr noundef nonnull @.str.2654, ptr noundef %13)
  call void @llvm.lifetime.end.p0(i64 8, ptr nonnull %5) #15
  br label %17

14:                                               ; preds = %4
  %15 = load i32, ptr @hf_pfcp_bbf_logical_port_id, align 4
  %16 = tail call ptr @proto_tree_add_item(ptr noundef %2, i32 noundef %15, ptr noundef %0, i32 noundef 0, i32 noundef -1, i32 noundef 0)
  br label %17

17:                                               ; preds = %14, %7
  %18 = call i32 @tvb_reported_length(ptr noundef %0)
  ret i32 %18
}